; Function Attrs: mustprogress uwtable
define internal noalias noundef nonnull ptr @_ZZN8pybind116detail16type_caster_baseIN12_GLOBAL__N_19MyObject2EE21make_copy_constructorIS3_vEEDTcmnw_T_piclsr3stdE7declvalIKS6_EEEtlPFPvPKvEEEPS7_ENUlSA_E_8__invokeESA_(ptr nocapture noundef readonly %0) #1 align 2 {
  %2 = tail call noalias noundef nonnull dereferenceable(16) ptr @_Znwm(i64 noundef 16) #32
  store ptr getelementptr inbounds ({ [4 x ptr] }, ptr @_ZTVN12_GLOBAL__N_19MyObject2E, i64 0, i32 0, i64 2), ptr %2, align 8
  %3 = getelementptr inbounds i8, ptr %2, i64 8
  %4 = getelementptr inbounds i8, ptr %0, i64 8
  %5 = load i32, ptr %4, align 8
  store i32 %5, ptr %3, align 8
  ret ptr %2
}